; Function Attrs: mustprogress uwtable
define hidden void @_ZN2cv12ppf_match_3d12queryPCFlannEPvRNS_3MatES3_S3_i(ptr noundef %0, ptr noundef nonnull align 8 dereferenceable(96) %1, ptr noundef nonnull align 8 dereferenceable(96) %2, ptr noundef nonnull align 8 dereferenceable(96) %3, i32 noundef %4) local_unnamed_addr #3 personality ptr @__gxx_personality_v0 {
  %6 = alloca %"class.cv::Range", align 8
  %7 = alloca %"class.cv::Range", align 4
  %8 = alloca %"class.cv::Mat", align 8
  %9 = alloca %"class.cv::Mat", align 8
  %10 = alloca %"class.cv::_OutputArray", align 8
  %11 = alloca %"struct.cvflann::SearchParams", align 8
  call void @llvm.lifetime.start.p0(i64 96, ptr nonnull %8) #36
  call void @_ZN2cv3MatC1Ev(ptr noundef nonnull align 8 dereferenceable(96) %8) #36
  call void @llvm.lifetime.start.p0(i64 96, ptr nonnull %9) #36
  call void @llvm.lifetime.start.p0(i64 8, ptr nonnull %6) #36, !noalias !147
  store i64 9223372034707292160, ptr %6, align 8, !noalias !147
  call void @llvm.lifetime.start.p0(i64 8, ptr nonnull %7) #36, !noalias !147
  store i32 0, ptr %7, align 4, !tbaa !95, !noalias !147
  %12 = getelementptr inbounds nuw i8, ptr %7, i64 4
  store i32 3, ptr %12, align 4, !tbaa !97, !noalias !147
  invoke void @_ZN2cv3MatC1ERKS0_RKNS_5RangeES5_(ptr noundef nonnull align 8 dereferenceable(96) %9, ptr noundef nonnull align 8 dereferenceable(96) %1, ptr noundef nonnull align 4 dereferenceable(8) %6, ptr noundef nonnull align 4 dereferenceable(8) %7)
          to label %13 unwind label %29

13:                                               ; preds = %5
  call void @llvm.lifetime.end.p0(i64 8, ptr nonnull %7) #36, !noalias !147
  call void @llvm.lifetime.end.p0(i64 8, ptr nonnull %6) #36, !noalias !147
  call void @llvm.lifetime.start.p0(i64 24, ptr nonnull %10) #36
  %14 = getelementptr inbounds nuw i8, ptr %10, i64 8
  %15 = getelementptr inbounds nuw i8, ptr %10, i64 16
  store i64 0, ptr %15, align 8
  store i32 33619968, ptr %10, align 8, !tbaa !101
  store ptr %8, ptr %14, align 8, !tbaa !104
  invoke void @_ZNK2cv3Mat6copyToERKNS_12_OutputArrayE(ptr noundef nonnull align 8 dereferenceable(96) %9, ptr noundef nonnull align 8 dereferenceable(24) %10)
          to label %16 unwind label %31

16:                                               ; preds = %13
  call void @llvm.lifetime.end.p0(i64 24, ptr nonnull %10) #36
  call void @_ZN2cv3MatD1Ev(ptr noundef nonnull align 8 dereferenceable(96) %9) #36
  call void @llvm.lifetime.end.p0(i64 96, ptr nonnull %9) #36
  call void @llvm.lifetime.start.p0(i64 48, ptr nonnull %11) #36
  %17 = getelementptr inbounds nuw i8, ptr %11, i64 8
  store i32 0, ptr %17, align 8, !tbaa !126
  %18 = getelementptr inbounds nuw i8, ptr %11, i64 16
  store ptr null, ptr %18, align 8, !tbaa !120
  %19 = getelementptr inbounds nuw i8, ptr %11, i64 24
  store ptr %17, ptr %19, align 8, !tbaa !127
  %20 = getelementptr inbounds nuw i8, ptr %11, i64 32
  store ptr %17, ptr %20, align 8, !tbaa !128
  %21 = getelementptr inbounds nuw i8, ptr %11, i64 40
  store i64 0, ptr %21, align 8, !tbaa !129
  invoke void @_ZN7cvflann12SearchParams4initEifbb(ptr noundef nonnull align 8 dereferenceable(48) %11, i32 noundef 32, float noundef 0.000000e+00, i1 noundef zeroext true, i1 noundef zeroext false)
          to label %_ZN7cvflann12SearchParamsC2Eifb.exit unwind label %22

22:                                               ; preds = %16
  %23 = landingpad { ptr, i32 }
          cleanup
  br label %.body

_ZN7cvflann12SearchParamsC2Eifb.exit:             ; preds = %16
  invoke void @_ZN2cv5flann12GenericIndexIN7cvflann2L2IfEEE9knnSearchERKNS_3MatERS6_S9_iRKNS2_12SearchParamsE(ptr noundef nonnull align 8 dereferenceable(104) %0, ptr noundef nonnull align 8 dereferenceable(96) %8, ptr noundef nonnull align 8 dereferenceable(96) %2, ptr noundef nonnull align 8 dereferenceable(96) %3, i32 noundef %4, ptr noundef nonnull align 8 dereferenceable(48) %11)
          to label %24 unwind label %34

24:                                               ; preds = %_ZN7cvflann12SearchParamsC2Eifb.exit
  %25 = load ptr, ptr %18, align 8, !tbaa !120
  invoke void @_ZNSt8_Rb_treeINSt7__cxx1112basic_stringIcSt11char_traitsIcESaIcEEESt4pairIKS5_N7cvflann3anyEESt10_Select1stISA_ESt4lessIS5_ESaISA_EE8_M_eraseEPSt13_Rb_tree_nodeISA_E(ptr noundef nonnull align 8 dereferenceable(48) %11, ptr noundef %25)
          to label %_ZNSt3mapINSt7__cxx1112basic_stringIcSt11char_traitsIcESaIcEEEN7cvflann3anyESt4lessIS5_ESaISt4pairIKS5_S7_EEED2Ev.exit unwind label %26

26:                                               ; preds = %24
  %27 = landingpad { ptr, i32 }
          catch ptr null
  %28 = extractvalue { ptr, i32 } %27, 0
  call void @__clang_call_terminate(ptr %28) #41
  unreachable

_ZNSt3mapINSt7__cxx1112basic_stringIcSt11char_traitsIcESaIcEEEN7cvflann3anyESt4lessIS5_ESaISt4pairIKS5_S7_EEED2Ev.exit: ; preds = %24
  call void @llvm.lifetime.end.p0(i64 48, ptr nonnull %11) #36
  call void @_ZN2cv3MatD1Ev(ptr noundef nonnull align 8 dereferenceable(96) %8) #36
  call void @llvm.lifetime.end.p0(i64 96, ptr nonnull %8) #36
  ret void

29:                                               ; preds = %5
  %30 = landingpad { ptr, i32 }
          cleanup
  br label %33

31:                                               ; preds = %13
  %32 = landingpad { ptr, i32 }
          cleanup
  call void @llvm.lifetime.end.p0(i64 24, ptr nonnull %10) #36
  call void @_ZN2cv3MatD1Ev(ptr noundef nonnull align 8 dereferenceable(96) %9) #36
  br label %33

33:                                               ; preds = %31, %29
  %.pn.pn = phi { ptr, i32 } [ %32, %31 ], [ %30, %29 ]
  call void @llvm.lifetime.end.p0(i64 96, ptr nonnull %9) #36
  br label %36

34:                                               ; preds = %_ZN7cvflann12SearchParamsC2Eifb.exit
  %35 = landingpad { ptr, i32 }
          cleanup
  br label %.body

.body:                                            ; preds = %22, %34
  %.pn12 = phi { ptr, i32 } [ %35, %34 ], [ %23, %22 ]
  call void @_ZNSt3mapINSt7__cxx1112basic_stringIcSt11char_traitsIcESaIcEEEN7cvflann3anyESt4lessIS5_ESaISt4pairIKS5_S7_EEED2Ev(ptr noundef nonnull align 8 dereferenceable(48) %11) #36
  call void @llvm.lifetime.end.p0(i64 48, ptr nonnull %11) #36
  br label %36

36:                                               ; preds = %.body, %33
  %.pn12.pn = phi { ptr, i32 } [ %.pn12, %.body ], [ %.pn.pn, %33 ]
  call void @_ZN2cv3MatD1Ev(ptr noundef nonnull align 8 dereferenceable(96) %8) #36
  call void @llvm.lifetime.end.p0(i64 96, ptr nonnull %8) #36
  resume { ptr, i32 } %.pn12.pn
}